target datalayout = "e-m:e-p270:32:32-p271:32:32-p272:64:64-i64:64-i128:128-f80:128-n8:16:32:64-S128"
target triple = "x86_64-pc-linux-gnu"

%struct.JsonbInState = type { ptr, ptr, i8, ptr }
%struct.JsonbValue = type { i32, %union.anon }
%union.anon = type { %struct.anon.2 }
%struct.anon.2 = type { i32, ptr, i8 }
%struct.anon.1 = type { i32, ptr }

@.str.1 = private unnamed_addr constant [8 x i8] c"jsonb.c\00", align 1
@.str.38 = private unnamed_addr constant [45 x i8] c"string too long to represent as jsonb string\00", align 1
@.str.39 = private unnamed_addr constant [76 x i8] c"Due to an implementation restriction, jsonb strings cannot exceed %d bytes.\00", align 1
@__func__.checkStringLen = private unnamed_addr constant [15 x i8] c"checkStringLen\00", align 1

; Function Attrs: nounwind uwtable
define internal zeroext i1 @checkStringLen(i64 noundef %0, ptr noundef %1) #0 {
  %3 = alloca i1, align 1
  %4 = alloca i64, align 8
  %5 = alloca ptr, align 8
  %6 = alloca ptr, align 8
  store i64 %0, ptr %4, align 8
  store ptr %1, ptr %5, align 8
  %7 = load i64, ptr %4, align 8
  %8 = icmp ugt i64 %7, 268435455
  br i1 %8, label %9, label %23

9:                                                ; preds = %2
  br label %10

10:                                               ; preds = %9
  br label %11

11:                                               ; preds = %10
  call void @llvm.lifetime.start.p0(i64 8, ptr %6) #8
  %12 = load ptr, ptr %5, align 8
  store ptr %12, ptr %6, align 8
  %13 = load ptr, ptr %6, align 8
  %14 = call zeroext i1 @errsave_start(ptr noundef %13, ptr noundef null)
  br i1 %14, label %15, label %20

15:                                               ; preds = %11
  %16 = call i32 @errcode(i32 noundef 261)
  %17 = call i32 (ptr, ...) @errmsg(ptr noundef @.str.38)
  %18 = call i32 (ptr, ...) @errdetail(ptr noundef @.str.39, i32 noundef 268435455)
  %19 = load ptr, ptr %6, align 8
  call void @errsave_finish(ptr noundef %19, ptr noundef @.str.1, i32 noundef 284, ptr noundef @__func__.checkStringLen)
  br label %20

20:                                               ; preds = %15, %11
  call void @llvm.lifetime.end.p0(i64 8, ptr %6) #8
  br label %21

21:                                               ; preds = %20
  store i1 false, ptr %3, align 1
  br label %24

22:                                               ; No predecessors!
  br label %23

23:                                               ; preds = %22, %2
  store i1 true, ptr %3, align 1
  br label %24

24:                                               ; preds = %23, %21
  %25 = load i1, ptr %3, align 1
  ret i1 %25
}

; Function Attrs: nounwind uwtable
define internal i32 @jsonb_in_object_field_start(ptr noundef %0, ptr noundef %1, i1 noundef zeroext %2) #0 {
  %4 = alloca i32, align 4
  %5 = alloca ptr, align 8
  %6 = alloca ptr, align 8
  %7 = alloca i8, align 1
  %8 = alloca ptr, align 8
  %9 = alloca %struct.JsonbValue, align 8
  %10 = alloca i32, align 4
  store ptr %0, ptr %5, align 8
  store ptr %1, ptr %6, align 8
  %11 = zext i1 %2 to i8
  store i8 %11, ptr %7, align 1
  call void @llvm.lifetime.start.p0(i64 8, ptr %8) #8
  %12 = load ptr, ptr %5, align 8
  store ptr %12, ptr %8, align 8
  call void @llvm.lifetime.start.p0(i64 32, ptr %9) #8
  %13 = getelementptr inbounds nuw %struct.JsonbValue, ptr %9, i32 0, i32 0
  store i32 1, ptr %13, align 8
  %14 = load ptr, ptr %6, align 8
  %15 = call i64 @strlen(ptr noundef %14) #9
  %16 = trunc i64 %15 to i32
  %17 = getelementptr inbounds nuw %struct.JsonbValue, ptr %9, i32 0, i32 1
  %18 = getelementptr inbounds nuw %struct.anon.1, ptr %17, i32 0, i32 0
  store i32 %16, ptr %18, align 8
  %19 = getelementptr inbounds nuw %struct.JsonbValue, ptr %9, i32 0, i32 1
  %20 = getelementptr inbounds nuw %struct.anon.1, ptr %19, i32 0, i32 0
  %21 = load i32, ptr %20, align 8
  %22 = sext i32 %21 to i64
  %23 = load ptr, ptr %8, align 8
  %24 = getelementptr inbounds nuw %struct.JsonbInState, ptr %23, i32 0, i32 3
  %25 = load ptr, ptr %24, align 8
  %26 = call zeroext i1 @checkStringLen(i64 noundef %22, ptr noundef %25)
  br i1 %26, label %28, label %27

27:                                               ; preds = %3
  store i32 23, ptr %4, align 4
  store i32 1, ptr %10, align 4
  br label %37

28:                                               ; preds = %3
  %29 = load ptr, ptr %6, align 8
  %30 = getelementptr inbounds nuw %struct.JsonbValue, ptr %9, i32 0, i32 1
  %31 = getelementptr inbounds nuw %struct.anon.1, ptr %30, i32 0, i32 1
  store ptr %29, ptr %31, align 8
  %32 = load ptr, ptr %8, align 8
  %33 = getelementptr inbounds nuw %struct.JsonbInState, ptr %32, i32 0, i32 0
  %34 = call ptr @pushJsonbValue(ptr noundef %33, i32 noundef 1, ptr noundef %9)
  %35 = load ptr, ptr %8, align 8
  %36 = getelementptr inbounds nuw %struct.JsonbInState, ptr %35, i32 0, i32 1
  store ptr %34, ptr %36, align 8
  store i32 0, ptr %4, align 4
  store i32 1, ptr %10, align 4
  br label %37

37:                                               ; preds = %28, %27
  call void @llvm.lifetime.end.p0(i64 32, ptr %9) #8
  call void @llvm.lifetime.end.p0(i64 8, ptr %8) #8
  %38 = load i32, ptr %4, align 4
  ret i32 %38
}