; Function Attrs: nounwind uwtable
define internal range(i32 0, 24) i32 @jsonb_in_object_field_start(ptr noundef %0, ptr noundef %1, i1 zeroext %2) #0 {
  %4 = alloca %struct.JsonbValue, align 8
  call void @llvm.lifetime.start.p0(i64 32, ptr nonnull %4) #11
  store i32 1, ptr %4, align 8
  %5 = tail call i64 @strlen(ptr noundef nonnull dereferenceable(1) %1) #10
  %6 = trunc i64 %5 to i32
  %7 = getelementptr inbounds nuw i8, ptr %4, i64 8
  store i32 %6, ptr %7, align 8
  %8 = getelementptr inbounds nuw i8, ptr %0, i64 24
  %9 = load ptr, ptr %8, align 8
  %10 = and i64 %5, 4026531840
  %11 = icmp eq i64 %10, 0
  br i1 %11, label %checkStringLen.exit, label %12

12:                                               ; preds = %3
  %13 = tail call zeroext i1 @errsave_start(ptr noundef %9, ptr noundef null) #11
  br i1 %13, label %14, label %checkStringLen.exit.thread

14:                                               ; preds = %12
  %15 = tail call i32 @errcode(i32 noundef 261) #11
  %16 = tail call i32 (ptr, ...) @errmsg(ptr noundef nonnull @.str.38) #11
  %17 = tail call i32 (ptr, ...) @errdetail(ptr noundef nonnull @.str.39, i32 noundef 268435455) #11
  tail call void @errsave_finish(ptr noundef %9, ptr noundef nonnull @.str.1, i32 noundef 284, ptr noundef nonnull @__func__.checkStringLen) #11
  br label %checkStringLen.exit.thread

checkStringLen.exit:                              ; preds = %3
  %18 = getelementptr inbounds nuw i8, ptr %4, i64 16
  store ptr %1, ptr %18, align 8
  %19 = call ptr @pushJsonbValue(ptr noundef nonnull %0, i32 noundef 1, ptr noundef nonnull %4) #11
  %20 = getelementptr inbounds nuw i8, ptr %0, i64 8
  store ptr %19, ptr %20, align 8
  br label %checkStringLen.exit.thread

checkStringLen.exit.thread:                       ; preds = %14, %12, %checkStringLen.exit
  %.0 = phi i32 [ 0, %checkStringLen.exit ], [ 23, %12 ], [ 23, %14 ]
  call void @llvm.lifetime.end.p0(i64 32, ptr nonnull %4) #11
  ret i32 %.0
}